; Function Attrs: mustprogress nofree norecurse nounwind willreturn memory(argmem: readwrite) uwtable
define void @_ZN7rocksdb22ColumnFamilyHandleImplC2EPNS_16ColumnFamilyDataEPNS_6DBImplEPNS_17InstrumentedMutexE(ptr nocapture noundef nonnull writeonly align 8 dereferenceable(32) %this, ptr noundef %column_family_data, ptr noundef %db, ptr noundef %mutex) unnamed_addr #5 align 2 personality ptr @__gxx_personality_v0 {
entry:
  store ptr getelementptr inbounds ({ [9 x ptr] }, ptr @_ZTVN7rocksdb22ColumnFamilyHandleImplE, i64 0, i32 0, i64 2), ptr %this, align 8
  %cfd_ = getelementptr inbounds i8, ptr %this, i64 8
  store ptr %column_family_data, ptr %cfd_, align 8
  %db_ = getelementptr inbounds i8, ptr %this, i64 16
  store ptr %db, ptr %db_, align 8
  %mutex_ = getelementptr inbounds i8, ptr %this, i64 24
  store ptr %mutex, ptr %mutex_, align 8
  %cmp.not = icmp eq ptr %column_family_data, null
  br i1 %cmp.not, label %if.end, label %if.then

if.then:                                          ; preds = %entry
  %refs_.i = getelementptr inbounds i8, ptr %column_family_data, i64 56
  %0 = atomicrmw add ptr %refs_.i, i32 1 seq_cst, align 4
  br label %if.end

if.end:                                           ; preds = %if.then, %entry
  ret void
}